target datalayout = "e-m:e-p270:32:32-p271:32:32-p272:64:64-i64:64-i128:128-f80:128-n8:16:32:64-S128"
target triple = "x86_64-pc-linux-gnu"

%"class.llvm::ArrayRef.128" = type { ptr, i64 }
%"struct.llvm::X86Disassembler::InternalInstruction" = type { %"class.llvm::ArrayRef.128", i64, i32, i64, i64, i8, [4 x i8], i32, [2 x i8], i8, i32, i8, i8, i8, i8, i8, i8, i8, i8, i8, i8, i8, i8, i32, i16, ptr, i32, i32, i8, i8, i8, i32, i8, i8, [3 x i64], i32, i32, i32, i32, i32, i32, i32, i32, i8, i32, i8, %"class.llvm::ArrayRef.131" }
%"class.llvm::ArrayRef.131" = type { ptr, i64 }

; Function Attrs: mustprogress nounwind uwtable
define linkonce_odr hidden noundef i32 @_ZN4llvm8byteswapIivEET_S1_(i32 noundef %0) #0 comdat {
  %2 = alloca i32, align 4
  %3 = alloca i32, align 4
  store i32 %0, ptr %2, align 4
  %4 = load i32, ptr %2, align 4
  store i32 %4, ptr %3, align 4
  %5 = load i32, ptr %3, align 4
  %6 = call i32 @llvm.bswap.i32(i32 %5)
  ret i32 %6
}

; Function Attrs: mustprogress nounwind uwtable
define linkonce_odr hidden noundef signext i16 @_ZN4llvm8byteswapIsvEET_S1_(i16 noundef signext %0) #0 comdat {
  %2 = alloca i16, align 2
  %3 = alloca i16, align 2
  %4 = alloca i16, align 2
  %5 = alloca i16, align 2
  store i16 %0, ptr %2, align 2
  %6 = load i16, ptr %2, align 2
  store i16 %6, ptr %3, align 2
  %7 = load i16, ptr %3, align 2
  %8 = zext i16 %7 to i32
  %9 = shl i32 %8, 8
  %10 = trunc i32 %9 to i16
  store i16 %10, ptr %4, align 2
  %11 = load i16, ptr %3, align 2
  %12 = zext i16 %11 to i32
  %13 = ashr i32 %12, 8
  %14 = trunc i32 %13 to i16
  store i16 %14, ptr %5, align 2
  %15 = load i16, ptr %4, align 2
  %16 = zext i16 %15 to i32
  %17 = load i16, ptr %5, align 2
  %18 = zext i16 %17 to i32
  %19 = or i32 %16, %18
  %20 = trunc i32 %19 to i16
  ret i16 %20
}

; Function Attrs: mustprogress nounwind uwtable
define linkonce_odr hidden noundef signext i8 @_ZN4llvm8byteswapIavEET_S1_(i8 noundef signext %0) #0 comdat {
  %2 = alloca i8, align 1
  store i8 %0, ptr %2, align 1
  %3 = load i8, ptr %2, align 1
  ret i8 %3
}

; Function Attrs: mustprogress nounwind uwtable
define linkonce_odr hidden noundef i32 @_ZN4llvm3sys15getSwappedBytesEi(i32 noundef %0) #0 comdat {
  %2 = alloca i32, align 4
  store i32 %0, ptr %2, align 4
  %3 = load i32, ptr %2, align 4
  %4 = call noundef i32 @_ZN4llvm8byteswapIivEET_S1_(i32 noundef %3) #9
  ret i32 %4
}

; Function Attrs: mustprogress nounwind uwtable
define linkonce_odr hidden noundef signext i16 @_ZN4llvm3sys15getSwappedBytesEs(i16 noundef signext %0) #0 comdat {
  %2 = alloca i16, align 2
  store i16 %0, ptr %2, align 2
  %3 = load i16, ptr %2, align 2
  %4 = call noundef signext i16 @_ZN4llvm8byteswapIsvEET_S1_(i16 noundef signext %3) #9
  ret i16 %4
}

; Function Attrs: mustprogress nounwind uwtable
define linkonce_odr hidden noundef signext i8 @_ZN4llvm3sys15getSwappedBytesEa(i8 noundef signext %0) #0 comdat {
  %2 = alloca i8, align 1
  store i8 %0, ptr %2, align 1
  %3 = load i8, ptr %2, align 1
  %4 = call noundef signext i8 @_ZN4llvm8byteswapIavEET_S1_(i8 noundef signext %3) #9
  ret i8 %4
}

; Function Attrs: mustprogress nounwind uwtable
define linkonce_odr hidden void @_ZN4llvm3sys13swapByteOrderIiEEvRT_(ptr noundef nonnull align 4 dereferenceable(4) %0) #0 comdat {
  %2 = alloca ptr, align 8
  store ptr %0, ptr %2, align 8
  %3 = load ptr, ptr %2, align 8
  %4 = load i32, ptr %3, align 4
  %5 = call noundef i32 @_ZN4llvm3sys15getSwappedBytesEi(i32 noundef %4)
  %6 = load ptr, ptr %2, align 8
  store i32 %5, ptr %6, align 4
  ret void
}

; Function Attrs: mustprogress nounwind uwtable
define linkonce_odr hidden void @_ZN4llvm3sys13swapByteOrderIsEEvRT_(ptr noundef nonnull align 2 dereferenceable(2) %0) #0 comdat {
  %2 = alloca ptr, align 8
  store ptr %0, ptr %2, align 8
  %3 = load ptr, ptr %2, align 8
  %4 = load i16, ptr %3, align 2
  %5 = call noundef signext i16 @_ZN4llvm3sys15getSwappedBytesEs(i16 noundef signext %4)
  %6 = load ptr, ptr %2, align 8
  store i16 %5, ptr %6, align 2
  ret void
}

; Function Attrs: mustprogress nounwind uwtable
define linkonce_odr hidden void @_ZN4llvm3sys13swapByteOrderIaEEvRT_(ptr noundef nonnull align 1 dereferenceable(1) %0) #0 comdat {
  %2 = alloca ptr, align 8
  store ptr %0, ptr %2, align 8
  %3 = load ptr, ptr %2, align 8
  %4 = load i8, ptr %3, align 1
  %5 = call noundef signext i8 @_ZN4llvm3sys15getSwappedBytesEa(i8 noundef signext %4)
  %6 = load ptr, ptr %2, align 8
  store i8 %5, ptr %6, align 1
  ret void
}

; Function Attrs: mustprogress nounwind uwtable
define linkonce_odr hidden noundef i32 @_ZN4llvm7support6endian9byte_swapIiEET_S3_NS_10endiannessE(i32 noundef %0, i32 noundef %1) #0 comdat {
  %3 = alloca i32, align 4
  %4 = alloca i32, align 4
  store i32 %0, ptr %3, align 4
  store i32 %1, ptr %4, align 4
  %5 = load i32, ptr %4, align 4
  %6 = icmp ne i32 %5, 1
  br i1 %6, label %7, label %8

7:                                                ; preds = %2
  call void @_ZN4llvm3sys13swapByteOrderIiEEvRT_(ptr noundef nonnull align 4 dereferenceable(4) %3)
  br label %8

8:                                                ; preds = %7, %2
  %9 = load i32, ptr %3, align 4
  ret i32 %9
}

; Function Attrs: mustprogress nounwind uwtable
define linkonce_odr hidden noundef signext i16 @_ZN4llvm7support6endian9byte_swapIsEET_S3_NS_10endiannessE(i16 noundef signext %0, i32 noundef %1) #0 comdat {
  %3 = alloca i16, align 2
  %4 = alloca i32, align 4
  store i16 %0, ptr %3, align 2
  store i32 %1, ptr %4, align 4
  %5 = load i32, ptr %4, align 4
  %6 = icmp ne i32 %5, 1
  br i1 %6, label %7, label %8

7:                                                ; preds = %2
  call void @_ZN4llvm3sys13swapByteOrderIsEEvRT_(ptr noundef nonnull align 2 dereferenceable(2) %3)
  br label %8

8:                                                ; preds = %7, %2
  %9 = load i16, ptr %3, align 2
  ret i16 %9
}

; Function Attrs: mustprogress nounwind uwtable
define linkonce_odr hidden noundef signext i8 @_ZN4llvm7support6endian9byte_swapIaEET_S3_NS_10endiannessE(i8 noundef signext %0, i32 noundef %1) #0 comdat {
  %3 = alloca i8, align 1
  %4 = alloca i32, align 4
  store i8 %0, ptr %3, align 1
  store i32 %1, ptr %4, align 4
  %5 = load i32, ptr %4, align 4
  %6 = icmp ne i32 %5, 1
  br i1 %6, label %7, label %8

7:                                                ; preds = %2
  call void @_ZN4llvm3sys13swapByteOrderIaEEvRT_(ptr noundef nonnull align 1 dereferenceable(1) %3)
  br label %8

8:                                                ; preds = %7, %2
  %9 = load i8, ptr %3, align 1
  ret i8 %9
}

; Function Attrs: mustprogress nounwind uwtable
define linkonce_odr hidden noundef i32 @_ZN4llvm7support6endian4readIiLm1EEET_PKvNS_10endiannessE(ptr noundef %0, i32 noundef %1) #0 comdat {
  %3 = alloca ptr, align 8
  %4 = alloca i32, align 4
  %5 = alloca i32, align 4
  store ptr %0, ptr %3, align 8
  store i32 %1, ptr %4, align 4
  %6 = load ptr, ptr %3, align 8
  call void @llvm.assume(i1 true) [ "align"(ptr %6, i64 1) ]
  call void @llvm.memcpy.p0.p0.i64(ptr align 4 %5, ptr align 1 %6, i64 4, i1 false)
  %7 = load i32, ptr %5, align 4
  %8 = load i32, ptr %4, align 4
  %9 = call noundef i32 @_ZN4llvm7support6endian9byte_swapIiEET_S3_NS_10endiannessE(i32 noundef %7, i32 noundef %8)
  ret i32 %9
}

; Function Attrs: mustprogress nounwind uwtable
define linkonce_odr hidden noundef signext i16 @_ZN4llvm7support6endian4readIsLm1EEET_PKvNS_10endiannessE(ptr noundef %0, i32 noundef %1) #0 comdat {
  %3 = alloca ptr, align 8
  %4 = alloca i32, align 4
  %5 = alloca i16, align 2
  store ptr %0, ptr %3, align 8
  store i32 %1, ptr %4, align 4
  %6 = load ptr, ptr %3, align 8
  call void @llvm.assume(i1 true) [ "align"(ptr %6, i64 1) ]
  call void @llvm.memcpy.p0.p0.i64(ptr align 2 %5, ptr align 1 %6, i64 2, i1 false)
  %7 = load i16, ptr %5, align 2
  %8 = load i32, ptr %4, align 4
  %9 = call noundef signext i16 @_ZN4llvm7support6endian9byte_swapIsEET_S3_NS_10endiannessE(i16 noundef signext %7, i32 noundef %8)
  ret i16 %9
}

; Function Attrs: mustprogress nounwind uwtable
define linkonce_odr hidden noundef signext i8 @_ZN4llvm7support6endian4readIaLm1EEET_PKvNS_10endiannessE(ptr noundef %0, i32 noundef %1) #0 comdat {
  %3 = alloca ptr, align 8
  %4 = alloca i32, align 4
  %5 = alloca i8, align 1
  store ptr %0, ptr %3, align 8
  store i32 %1, ptr %4, align 4
  %6 = load ptr, ptr %3, align 8
  call void @llvm.assume(i1 true) [ "align"(ptr %6, i64 1) ]
  call void @llvm.memcpy.p0.p0.i64(ptr align 1 %5, ptr align 1 %6, i64 1, i1 false)
  %7 = load i8, ptr %5, align 1
  %8 = load i32, ptr %4, align 4
  %9 = call noundef signext i8 @_ZN4llvm7support6endian9byte_swapIaEET_S3_NS_10endiannessE(i8 noundef signext %7, i32 noundef %8)
  ret i8 %9
}

; Function Attrs: mustprogress nounwind uwtable
define linkonce_odr hidden noundef nonnull align 1 dereferenceable(1) ptr @_ZNK4llvm8ArrayRefIhEixEm(ptr noundef nonnull align 8 dereferenceable(16) %0, i64 noundef %1) #0 comdat align 2 {
  %3 = alloca ptr, align 8
  %4 = alloca i64, align 8
  store ptr %0, ptr %3, align 8
  store i64 %1, ptr %4, align 8
  %5 = load ptr, ptr %3, align 8
  %6 = getelementptr inbounds nuw %"class.llvm::ArrayRef.128", ptr %5, i32 0, i32 0
  %7 = load ptr, ptr %6, align 8
  %8 = load i64, ptr %4, align 8
  %9 = getelementptr inbounds i8, ptr %7, i64 %8
  ret ptr %9
}

; Function Attrs: mustprogress nounwind uwtable
define linkonce_odr hidden noundef i64 @_ZNK4llvm8ArrayRefIhE4sizeEv(ptr noundef nonnull align 8 dereferenceable(16) %0) #0 comdat align 2 {
  %2 = alloca ptr, align 8
  store ptr %0, ptr %2, align 8
  %3 = load ptr, ptr %2, align 8
  %4 = getelementptr inbounds nuw %"class.llvm::ArrayRef.128", ptr %3, i32 0, i32 1
  %5 = load i64, ptr %4, align 8
  ret i64 %5
}

; Function Attrs: mustprogress nounwind uwtable
define internal noundef zeroext i1 @_ZL7consumeIiEbPN4llvm15X86Disassembler19InternalInstructionERT_(ptr noundef %0, ptr noundef nonnull align 4 dereferenceable(4) %1) #0 {
  %3 = alloca i1, align 1
  %4 = alloca ptr, align 8
  %5 = alloca ptr, align 8
  %6 = alloca %"class.llvm::ArrayRef.128", align 8
  %7 = alloca i64, align 8
  store ptr %0, ptr %4, align 8
  store ptr %1, ptr %5, align 8
  %8 = load ptr, ptr %4, align 8
  %9 = getelementptr inbounds nuw %"struct.llvm::X86Disassembler::InternalInstruction", ptr %8, i32 0, i32 0
  call void @llvm.memcpy.p0.p0.i64(ptr align 8 %6, ptr align 8 %9, i64 16, i1 false)
  %10 = load ptr, ptr %4, align 8
  %11 = getelementptr inbounds nuw %"struct.llvm::X86Disassembler::InternalInstruction", ptr %10, i32 0, i32 1
  %12 = load i64, ptr %11, align 8
  %13 = load ptr, ptr %4, align 8
  %14 = getelementptr inbounds nuw %"struct.llvm::X86Disassembler::InternalInstruction", ptr %13, i32 0, i32 3
  %15 = load i64, ptr %14, align 8
  %16 = sub i64 %12, %15
  store i64 %16, ptr %7, align 8
  %17 = load i64, ptr %7, align 8
  %18 = add i64 %17, 4
  %19 = call noundef i64 @_ZNK4llvm8ArrayRefIhE4sizeEv(ptr noundef nonnull align 8 dereferenceable(16) %6)
  %20 = icmp ugt i64 %18, %19
  br i1 %20, label %21, label %22

21:                                               ; preds = %2
  store i1 true, ptr %3, align 1
  br label %31

22:                                               ; preds = %2
  %23 = load i64, ptr %7, align 8
  %24 = call noundef nonnull align 1 dereferenceable(1) ptr @_ZNK4llvm8ArrayRefIhEixEm(ptr noundef nonnull align 8 dereferenceable(16) %6, i64 noundef %23)
  %25 = call noundef i32 @_ZN4llvm7support6endian4readIiLm1EEET_PKvNS_10endiannessE(ptr noundef %24, i32 noundef 1)
  %26 = load ptr, ptr %5, align 8
  store i32 %25, ptr %26, align 4
  %27 = load ptr, ptr %4, align 8
  %28 = getelementptr inbounds nuw %"struct.llvm::X86Disassembler::InternalInstruction", ptr %27, i32 0, i32 1
  %29 = load i64, ptr %28, align 8
  %30 = add i64 %29, 4
  store i64 %30, ptr %28, align 8
  store i1 false, ptr %3, align 1
  br label %31

31:                                               ; preds = %22, %21
  %32 = load i1, ptr %3, align 1
  ret i1 %32
}

; Function Attrs: mustprogress nounwind uwtable
define internal noundef zeroext i1 @_ZL7consumeIsEbPN4llvm15X86Disassembler19InternalInstructionERT_(ptr noundef %0, ptr noundef nonnull align 2 dereferenceable(2) %1) #0 {
  %3 = alloca i1, align 1
  %4 = alloca ptr, align 8
  %5 = alloca ptr, align 8
  %6 = alloca %"class.llvm::ArrayRef.128", align 8
  %7 = alloca i64, align 8
  store ptr %0, ptr %4, align 8
  store ptr %1, ptr %5, align 8
  %8 = load ptr, ptr %4, align 8
  %9 = getelementptr inbounds nuw %"struct.llvm::X86Disassembler::InternalInstruction", ptr %8, i32 0, i32 0
  call void @llvm.memcpy.p0.p0.i64(ptr align 8 %6, ptr align 8 %9, i64 16, i1 false)
  %10 = load ptr, ptr %4, align 8
  %11 = getelementptr inbounds nuw %"struct.llvm::X86Disassembler::InternalInstruction", ptr %10, i32 0, i32 1
  %12 = load i64, ptr %11, align 8
  %13 = load ptr, ptr %4, align 8
  %14 = getelementptr inbounds nuw %"struct.llvm::X86Disassembler::InternalInstruction", ptr %13, i32 0, i32 3
  %15 = load i64, ptr %14, align 8
  %16 = sub i64 %12, %15
  store i64 %16, ptr %7, align 8
  %17 = load i64, ptr %7, align 8
  %18 = add i64 %17, 2
  %19 = call noundef i64 @_ZNK4llvm8ArrayRefIhE4sizeEv(ptr noundef nonnull align 8 dereferenceable(16) %6)
  %20 = icmp ugt i64 %18, %19
  br i1 %20, label %21, label %22

21:                                               ; preds = %2
  store i1 true, ptr %3, align 1
  br label %31

22:                                               ; preds = %2
  %23 = load i64, ptr %7, align 8
  %24 = call noundef nonnull align 1 dereferenceable(1) ptr @_ZNK4llvm8ArrayRefIhEixEm(ptr noundef nonnull align 8 dereferenceable(16) %6, i64 noundef %23)
  %25 = call noundef signext i16 @_ZN4llvm7support6endian4readIsLm1EEET_PKvNS_10endiannessE(ptr noundef %24, i32 noundef 1)
  %26 = load ptr, ptr %5, align 8
  store i16 %25, ptr %26, align 2
  %27 = load ptr, ptr %4, align 8
  %28 = getelementptr inbounds nuw %"struct.llvm::X86Disassembler::InternalInstruction", ptr %27, i32 0, i32 1
  %29 = load i64, ptr %28, align 8
  %30 = add i64 %29, 2
  store i64 %30, ptr %28, align 8
  store i1 false, ptr %3, align 1
  br label %31

31:                                               ; preds = %22, %21
  %32 = load i1, ptr %3, align 1
  ret i1 %32
}

; Function Attrs: mustprogress nounwind uwtable
define internal noundef zeroext i1 @_ZL7consumeIaEbPN4llvm15X86Disassembler19InternalInstructionERT_(ptr noundef %0, ptr noundef nonnull align 1 dereferenceable(1) %1) #0 {
  %3 = alloca i1, align 1
  %4 = alloca ptr, align 8
  %5 = alloca ptr, align 8
  %6 = alloca %"class.llvm::ArrayRef.128", align 8
  %7 = alloca i64, align 8
  store ptr %0, ptr %4, align 8
  store ptr %1, ptr %5, align 8
  %8 = load ptr, ptr %4, align 8
  %9 = getelementptr inbounds nuw %"struct.llvm::X86Disassembler::InternalInstruction", ptr %8, i32 0, i32 0
  call void @llvm.memcpy.p0.p0.i64(ptr align 8 %6, ptr align 8 %9, i64 16, i1 false)
  %10 = load ptr, ptr %4, align 8
  %11 = getelementptr inbounds nuw %"struct.llvm::X86Disassembler::InternalInstruction", ptr %10, i32 0, i32 1
  %12 = load i64, ptr %11, align 8
  %13 = load ptr, ptr %4, align 8
  %14 = getelementptr inbounds nuw %"struct.llvm::X86Disassembler::InternalInstruction", ptr %13, i32 0, i32 3
  %15 = load i64, ptr %14, align 8
  %16 = sub i64 %12, %15
  store i64 %16, ptr %7, align 8
  %17 = load i64, ptr %7, align 8
  %18 = add i64 %17, 1
  %19 = call noundef i64 @_ZNK4llvm8ArrayRefIhE4sizeEv(ptr noundef nonnull align 8 dereferenceable(16) %6)
  %20 = icmp ugt i64 %18, %19
  br i1 %20, label %21, label %22

21:                                               ; preds = %2
  store i1 true, ptr %3, align 1
  br label %31

22:                                               ; preds = %2
  %23 = load i64, ptr %7, align 8
  %24 = call noundef nonnull align 1 dereferenceable(1) ptr @_ZNK4llvm8ArrayRefIhEixEm(ptr noundef nonnull align 8 dereferenceable(16) %6, i64 noundef %23)
  %25 = call noundef signext i8 @_ZN4llvm7support6endian4readIaLm1EEET_PKvNS_10endiannessE(ptr noundef %24, i32 noundef 1)
  %26 = load ptr, ptr %5, align 8
  store i8 %25, ptr %26, align 1
  %27 = load ptr, ptr %4, align 8
  %28 = getelementptr inbounds nuw %"struct.llvm::X86Disassembler::InternalInstruction", ptr %27, i32 0, i32 1
  %29 = load i64, ptr %28, align 8
  %30 = add i64 %29, 1
  store i64 %30, ptr %28, align 8
  store i1 false, ptr %3, align 1
  br label %31

31:                                               ; preds = %22, %21
  %32 = load i1, ptr %3, align 1
  ret i1 %32
}

; Function Attrs: mustprogress nounwind uwtable
define internal noundef i32 @_ZL16readDisplacementPN4llvm15X86Disassembler19InternalInstructionE(ptr noundef %0) #0 {
  %2 = alloca i32, align 4
  %3 = alloca ptr, align 8
  %4 = alloca i8, align 1
  %5 = alloca i16, align 2
  %6 = alloca i32, align 4
  store ptr %0, ptr %3, align 8
  br label %7

7:                                                ; preds = %1
  br label %8

8:                                                ; preds = %7
  %9 = load ptr, ptr %3, align 8
  %10 = getelementptr inbounds nuw %"struct.llvm::X86Disassembler::InternalInstruction", ptr %9, i32 0, i32 1
  %11 = load i64, ptr %10, align 8
  %12 = load ptr, ptr %3, align 8
  %13 = getelementptr inbounds nuw %"struct.llvm::X86Disassembler::InternalInstruction", ptr %12, i32 0, i32 3
  %14 = load i64, ptr %13, align 8
  %15 = sub i64 %11, %14
  %16 = trunc i64 %15 to i8
  %17 = load ptr, ptr %3, align 8
  %18 = getelementptr inbounds nuw %"struct.llvm::X86Disassembler::InternalInstruction", ptr %17, i32 0, i32 20
  store i8 %16, ptr %18, align 1
  %19 = load ptr, ptr %3, align 8
  %20 = getelementptr inbounds nuw %"struct.llvm::X86Disassembler::InternalInstruction", ptr %19, i32 0, i32 39
  %21 = load i32, ptr %20, align 8
  switch i32 %21, label %49 [
    i32 0, label %22
    i32 1, label %23
    i32 2, label %32
    i32 3, label %41
  ]

22:                                               ; preds = %8
  br label %49

23:                                               ; preds = %8
  %24 = load ptr, ptr %3, align 8
  %25 = call noundef zeroext i1 @_ZL7consumeIaEbPN4llvm15X86Disassembler19InternalInstructionERT_(ptr noundef %24, ptr noundef nonnull align 1 dereferenceable(1) %4)
  br i1 %25, label %26, label %27

26:                                               ; preds = %23
  store i32 -1, ptr %2, align 4
  br label %50

27:                                               ; preds = %23
  %28 = load i8, ptr %4, align 1
  %29 = sext i8 %28 to i32
  %30 = load ptr, ptr %3, align 8
  %31 = getelementptr inbounds nuw %"struct.llvm::X86Disassembler::InternalInstruction", ptr %30, i32 0, i32 31
  store i32 %29, ptr %31, align 4
  br label %49

32:                                               ; preds = %8
  %33 = load ptr, ptr %3, align 8
  %34 = call noundef zeroext i1 @_ZL7consumeIsEbPN4llvm15X86Disassembler19InternalInstructionERT_(ptr noundef %33, ptr noundef nonnull align 2 dereferenceable(2) %5)
  br i1 %34, label %35, label %36

35:                                               ; preds = %32
  store i32 -1, ptr %2, align 4
  br label %50

36:                                               ; preds = %32
  %37 = load i16, ptr %5, align 2
  %38 = sext i16 %37 to i32
  %39 = load ptr, ptr %3, align 8
  %40 = getelementptr inbounds nuw %"struct.llvm::X86Disassembler::InternalInstruction", ptr %39, i32 0, i32 31
  store i32 %38, ptr %40, align 4
  br label %49

41:                                               ; preds = %8
  %42 = load ptr, ptr %3, align 8
  %43 = call noundef zeroext i1 @_ZL7consumeIiEbPN4llvm15X86Disassembler19InternalInstructionERT_(ptr noundef %42, ptr noundef nonnull align 4 dereferenceable(4) %6)
  br i1 %43, label %44, label %45

44:                                               ; preds = %41
  store i32 -1, ptr %2, align 4
  br label %50

45:                                               ; preds = %41
  %46 = load i32, ptr %6, align 4
  %47 = load ptr, ptr %3, align 8
  %48 = getelementptr inbounds nuw %"struct.llvm::X86Disassembler::InternalInstruction", ptr %47, i32 0, i32 31
  store i32 %46, ptr %48, align 4
  br label %49

49:                                               ; preds = %45, %36, %27, %22, %8
  store i32 0, ptr %2, align 4
  br label %50

50:                                               ; preds = %49, %44, %35, %26
  %51 = load i32, ptr %2, align 4
  ret i32 %51
}