; Function Attrs: mustprogress nofree norecurse nosync nounwind willreturn memory(read, argmem: readwrite, inaccessiblemem: write) uwtable
define internal fastcc noundef range(i32 -1, 1) i32 @_ZL16readDisplacementPN4llvm15X86Disassembler19InternalInstructionE(ptr noundef nonnull captures(none) initializes((77, 78)) %0) unnamed_addr #7 {
  %2 = getelementptr inbounds nuw i8, ptr %0, i64 16
  %3 = load i64, ptr %2, align 8
  %4 = getelementptr inbounds nuw i8, ptr %0, i64 32
  %5 = load i64, ptr %4, align 8
  %6 = sub i64 %3, %5
  %7 = trunc i64 %6 to i8
  %8 = getelementptr inbounds nuw i8, ptr %0, i64 77
  store i8 %7, ptr %8, align 1
  %9 = getelementptr inbounds nuw i8, ptr %0, i64 160
  %10 = load i32, ptr %9, align 8
  switch i32 %10, label %_ZL7consumeIaEbPN4llvm15X86Disassembler19InternalInstructionERT_.exit.thread [
    i32 3, label %25
    i32 1, label %11
    i32 2, label %18
  ]

11:                                               ; preds = %1
  %.sroa.2.0..sroa_idx.i = getelementptr inbounds nuw i8, ptr %0, i64 8
  %.sroa.2.0.copyload.i = load i64, ptr %.sroa.2.0..sroa_idx.i, align 8
  %12 = add i64 %6, 1
  %13 = icmp ugt i64 %12, %.sroa.2.0.copyload.i
  br i1 %13, label %_ZL7consumeIaEbPN4llvm15X86Disassembler19InternalInstructionERT_.exit.thread, label %14

14:                                               ; preds = %11
  %.sroa.0.0.copyload.i = load ptr, ptr %0, align 8
  %15 = getelementptr inbounds i8, ptr %.sroa.0.0.copyload.i, i64 %6
  call void @llvm.assume(i1 true) [ "align"(ptr %15, i64 1) ]
  %.0.copyload.i.i = load i8, ptr %15, align 1
  %16 = add i64 %3, 1
  store i64 %16, ptr %2, align 8
  %17 = sext i8 %.0.copyload.i.i to i32
  br label %_ZL7consumeIaEbPN4llvm15X86Disassembler19InternalInstructionERT_.exit.thread.sink.split

18:                                               ; preds = %1
  %.sroa.2.0..sroa_idx.i10 = getelementptr inbounds nuw i8, ptr %0, i64 8
  %.sroa.2.0.copyload.i11 = load i64, ptr %.sroa.2.0..sroa_idx.i10, align 8
  %19 = add i64 %6, 2
  %20 = icmp ugt i64 %19, %.sroa.2.0.copyload.i11
  br i1 %20, label %_ZL7consumeIaEbPN4llvm15X86Disassembler19InternalInstructionERT_.exit.thread, label %21

21:                                               ; preds = %18
  %.sroa.0.0.copyload.i12 = load ptr, ptr %0, align 8
  %22 = getelementptr inbounds i8, ptr %.sroa.0.0.copyload.i12, i64 %6
  call void @llvm.assume(i1 true) [ "align"(ptr %22, i64 1) ]
  %.0.copyload.i.i13 = load i16, ptr %22, align 1
  %23 = add i64 %3, 2
  store i64 %23, ptr %2, align 8
  %24 = sext i16 %.0.copyload.i.i13 to i32
  br label %_ZL7consumeIaEbPN4llvm15X86Disassembler19InternalInstructionERT_.exit.thread.sink.split

25:                                               ; preds = %1
  %.sroa.2.0..sroa_idx.i14 = getelementptr inbounds nuw i8, ptr %0, i64 8
  %.sroa.2.0.copyload.i15 = load i64, ptr %.sroa.2.0..sroa_idx.i14, align 8
  %26 = add i64 %6, 4
  %27 = icmp ugt i64 %26, %.sroa.2.0.copyload.i15
  br i1 %27, label %_ZL7consumeIaEbPN4llvm15X86Disassembler19InternalInstructionERT_.exit.thread, label %28

28:                                               ; preds = %25
  %.sroa.0.0.copyload.i16 = load ptr, ptr %0, align 8
  %29 = getelementptr inbounds i8, ptr %.sroa.0.0.copyload.i16, i64 %6
  call void @llvm.assume(i1 true) [ "align"(ptr %29, i64 1) ]
  %.0.copyload.i.i17 = load i32, ptr %29, align 1
  %30 = add i64 %3, 4
  store i64 %30, ptr %2, align 8
  br label %_ZL7consumeIaEbPN4llvm15X86Disassembler19InternalInstructionERT_.exit.thread.sink.split

_ZL7consumeIaEbPN4llvm15X86Disassembler19InternalInstructionERT_.exit.thread.sink.split: ; preds = %28, %21, %14
  %.sink = phi i32 [ %17, %14 ], [ %24, %21 ], [ %.0.copyload.i.i17, %28 ]
  %31 = getelementptr inbounds nuw i8, ptr %0, i64 108
  store i32 %.sink, ptr %31, align 4
  br label %_ZL7consumeIaEbPN4llvm15X86Disassembler19InternalInstructionERT_.exit.thread

_ZL7consumeIaEbPN4llvm15X86Disassembler19InternalInstructionERT_.exit.thread: ; preds = %_ZL7consumeIaEbPN4llvm15X86Disassembler19InternalInstructionERT_.exit.thread.sink.split, %25, %18, %11, %1
  %.0 = phi i32 [ 0, %1 ], [ -1, %11 ], [ -1, %18 ], [ -1, %25 ], [ 0, %_ZL7consumeIaEbPN4llvm15X86Disassembler19InternalInstructionERT_.exit.thread.sink.split ]
  ret i32 %.0
}